; Function Attrs: nounwind uwtable
define void @dt_control_change_cursor(i32 noundef %0) local_unnamed_addr #0 {
  %2 = load ptr, ptr getelementptr inbounds nuw (i8, ptr @darktable, i64 104), align 8, !tbaa !108
  %3 = load ptr, ptr %2, align 8, !tbaa !109
  %4 = tail call ptr @dt_ui_main_window(ptr noundef %3) #13
  %5 = tail call ptr @gtk_widget_get_window(ptr noundef %4) #13
  %6 = load ptr, ptr getelementptr inbounds nuw (i8, ptr @darktable, i64 88), align 8, !tbaa !107
  %7 = getelementptr inbounds nuw i8, ptr %6, i64 940
  %8 = load i32, ptr %7, align 4, !tbaa !106
  %9 = icmp eq i32 %8, 0
  %10 = icmp ne ptr %5, null
  %or.cond = select i1 %9, i1 %10, i1 false
  br i1 %or.cond, label %11, label %14

11:                                               ; preds = %1
  %12 = tail call ptr @gdk_window_get_display(ptr noundef nonnull %5) #13
  %13 = tail call ptr @gdk_cursor_new_for_display(ptr noundef %12, i32 noundef %0) #13
  tail call void @gdk_window_set_cursor(ptr noundef nonnull %5, ptr noundef %13) #13
  tail call void @g_object_unref(ptr noundef %13) #13
  br label %14

14:                                               ; preds = %11, %1
  ret void
}